target datalayout = "e-m:e-p270:32:32-p271:32:32-p272:64:64-i64:64-i128:128-f80:128-n8:16:32:64-S128"
target triple = "x86_64-pc-linux-gnu"

%struct.DVBSubContext = type { ptr, i32, i32, i32, i32, i32, i32, [257 x [256 x i32]], i32, i64, ptr, ptr, ptr, ptr, ptr }
%struct.DVBSubRegion = type { i32, i32, i32, i32, i32, i32, i32, [1024 x i8], i32, ptr, i32, i32, ptr, ptr }
%struct.DVBSubObject = type { i32, i32, i32, ptr, ptr }
%struct.DVBSubObjectDisplay = type { i32, i32, i32, i32, i32, i32, ptr, ptr }

@.str.17 = private unnamed_addr constant [30 x i8] c"Assertion %s failed at %s:%d\0A\00", align 1
@.str.18 = private unnamed_addr constant [5 x i8] c"obj2\00", align 1
@.str.19 = private unnamed_addr constant [23 x i8] c"libavcodec/dvbsubdec.c\00", align 1

; Function Attrs: nounwind uwtable
define internal ptr @get_object(ptr noundef %0, i32 noundef %1) #1 {
  %3 = alloca ptr, align 8
  %4 = alloca i32, align 4
  %5 = alloca ptr, align 8
  store ptr %0, ptr %3, align 8, !tbaa !29
  store i32 %1, ptr %4, align 4, !tbaa !54
  call void @llvm.lifetime.start.p0(i64 8, ptr %5) #11
  %6 = load ptr, ptr %3, align 8, !tbaa !29
  %7 = getelementptr inbounds nuw %struct.DVBSubContext, ptr %6, i32 0, i32 12
  %8 = load ptr, ptr %7, align 8, !tbaa !107
  store ptr %8, ptr %5, align 8, !tbaa !104
  br label %9

9:                                                ; preds = %20, %2
  %10 = load ptr, ptr %5, align 8, !tbaa !104
  %11 = icmp ne ptr %10, null
  br i1 %11, label %12, label %18

12:                                               ; preds = %9
  %13 = load ptr, ptr %5, align 8, !tbaa !104
  %14 = getelementptr inbounds nuw %struct.DVBSubObject, ptr %13, i32 0, i32 0
  %15 = load i32, ptr %14, align 8, !tbaa !105
  %16 = load i32, ptr %4, align 4, !tbaa !54
  %17 = icmp ne i32 %15, %16
  br label %18

18:                                               ; preds = %12, %9
  %19 = phi i1 [ false, %9 ], [ %17, %12 ]
  br i1 %19, label %20, label %24

20:                                               ; preds = %18
  %21 = load ptr, ptr %5, align 8, !tbaa !104
  %22 = getelementptr inbounds nuw %struct.DVBSubObject, ptr %21, i32 0, i32 4
  %23 = load ptr, ptr %22, align 8, !tbaa !108
  store ptr %23, ptr %5, align 8, !tbaa !104
  br label %9, !llvm.loop !177

24:                                               ; preds = %18
  %25 = load ptr, ptr %5, align 8, !tbaa !104
  call void @llvm.lifetime.end.p0(i64 8, ptr %5) #11
  ret ptr %25
}

; Function Attrs: nounwind uwtable
define internal void @delete_region_display_list(ptr noundef %0, ptr noundef %1) #1 {
  %3 = alloca ptr, align 8
  %4 = alloca ptr, align 8
  %5 = alloca ptr, align 8
  %6 = alloca ptr, align 8
  %7 = alloca ptr, align 8
  %8 = alloca ptr, align 8
  %9 = alloca ptr, align 8
  %10 = alloca ptr, align 8
  store ptr %0, ptr %3, align 8, !tbaa !29
  store ptr %1, ptr %4, align 8, !tbaa !88
  call void @llvm.lifetime.start.p0(i64 8, ptr %5) #11
  call void @llvm.lifetime.start.p0(i64 8, ptr %6) #11
  call void @llvm.lifetime.start.p0(i64 8, ptr %7) #11
  call void @llvm.lifetime.start.p0(i64 8, ptr %8) #11
  call void @llvm.lifetime.start.p0(i64 8, ptr %9) #11
  call void @llvm.lifetime.start.p0(i64 8, ptr %10) #11
  br label %11

11:                                               ; preds = %86, %2
  %12 = load ptr, ptr %4, align 8, !tbaa !88
  %13 = getelementptr inbounds nuw %struct.DVBSubRegion, ptr %12, i32 0, i32 12
  %14 = load ptr, ptr %13, align 8, !tbaa !118
  %15 = icmp ne ptr %14, null
  br i1 %15, label %16, label %92

16:                                               ; preds = %11
  %17 = load ptr, ptr %4, align 8, !tbaa !88
  %18 = getelementptr inbounds nuw %struct.DVBSubRegion, ptr %17, i32 0, i32 12
  %19 = load ptr, ptr %18, align 8, !tbaa !118
  store ptr %19, ptr %8, align 8, !tbaa !110
  %20 = load ptr, ptr %3, align 8, !tbaa !29
  %21 = load ptr, ptr %8, align 8, !tbaa !110
  %22 = getelementptr inbounds nuw %struct.DVBSubObjectDisplay, ptr %21, i32 0, i32 0
  %23 = load i32, ptr %22, align 8, !tbaa !111
  %24 = call ptr @get_object(ptr noundef %20, i32 noundef %23)
  store ptr %24, ptr %5, align 8, !tbaa !104
  %25 = load ptr, ptr %5, align 8, !tbaa !104
  %26 = icmp ne ptr %25, null
  br i1 %26, label %27, label %86

27:                                               ; preds = %16
  %28 = load ptr, ptr %5, align 8, !tbaa !104
  %29 = getelementptr inbounds nuw %struct.DVBSubObject, ptr %28, i32 0, i32 3
  store ptr %29, ptr %10, align 8, !tbaa !170
  %30 = load ptr, ptr %10, align 8, !tbaa !170
  %31 = load ptr, ptr %30, align 8, !tbaa !110
  store ptr %31, ptr %9, align 8, !tbaa !110
  br label %32

32:                                               ; preds = %41, %27
  %33 = load ptr, ptr %9, align 8, !tbaa !110
  %34 = icmp ne ptr %33, null
  br i1 %34, label %35, label %39

35:                                               ; preds = %32
  %36 = load ptr, ptr %9, align 8, !tbaa !110
  %37 = load ptr, ptr %8, align 8, !tbaa !110
  %38 = icmp ne ptr %36, %37
  br label %39

39:                                               ; preds = %35, %32
  %40 = phi i1 [ false, %32 ], [ %38, %35 ]
  br i1 %40, label %41, label %46

41:                                               ; preds = %39
  %42 = load ptr, ptr %9, align 8, !tbaa !110
  %43 = getelementptr inbounds nuw %struct.DVBSubObjectDisplay, ptr %42, i32 0, i32 7
  store ptr %43, ptr %10, align 8, !tbaa !170
  %44 = load ptr, ptr %10, align 8, !tbaa !170
  %45 = load ptr, ptr %44, align 8, !tbaa !110
  store ptr %45, ptr %9, align 8, !tbaa !110
  br label %32, !llvm.loop !172

46:                                               ; preds = %39
  %47 = load ptr, ptr %9, align 8, !tbaa !110
  %48 = icmp ne ptr %47, null
  br i1 %48, label %49, label %85

49:                                               ; preds = %46
  %50 = load ptr, ptr %9, align 8, !tbaa !110
  %51 = getelementptr inbounds nuw %struct.DVBSubObjectDisplay, ptr %50, i32 0, i32 7
  %52 = load ptr, ptr %51, align 8, !tbaa !121
  %53 = load ptr, ptr %10, align 8, !tbaa !170
  store ptr %52, ptr %53, align 8, !tbaa !110
  %54 = load ptr, ptr %5, align 8, !tbaa !104
  %55 = getelementptr inbounds nuw %struct.DVBSubObject, ptr %54, i32 0, i32 3
  %56 = load ptr, ptr %55, align 8, !tbaa !120
  %57 = icmp ne ptr %56, null
  br i1 %57, label %84, label %58

58:                                               ; preds = %49
  %59 = load ptr, ptr %3, align 8, !tbaa !29
  %60 = getelementptr inbounds nuw %struct.DVBSubContext, ptr %59, i32 0, i32 12
  store ptr %60, ptr %7, align 8, !tbaa !173
  %61 = load ptr, ptr %7, align 8, !tbaa !173
  %62 = load ptr, ptr %61, align 8, !tbaa !104
  store ptr %62, ptr %6, align 8, !tbaa !104
  br label %63

63:                                               ; preds = %74, %58
  %64 = load ptr, ptr %6, align 8, !tbaa !104
  %65 = load ptr, ptr %5, align 8, !tbaa !104
  %66 = icmp ne ptr %64, %65
  br i1 %66, label %67, label %79

67:                                               ; preds = %63
  br label %68

68:                                               ; preds = %67
  %69 = load ptr, ptr %6, align 8, !tbaa !104
  %70 = icmp ne ptr %69, null
  br i1 %70, label %72, label %71

71:                                               ; preds = %68
  call void (ptr, i32, ptr, ...) @av_log(ptr noundef null, i32 noundef 0, ptr noundef @.str.17, ptr noundef @.str.18, ptr noundef @.str.19, i32 noundef 205)
  call void @abort() #13
  unreachable

72:                                               ; preds = %68
  br label %73

73:                                               ; preds = %72
  br label %74

74:                                               ; preds = %73
  %75 = load ptr, ptr %6, align 8, !tbaa !104
  %76 = getelementptr inbounds nuw %struct.DVBSubObject, ptr %75, i32 0, i32 4
  store ptr %76, ptr %7, align 8, !tbaa !173
  %77 = load ptr, ptr %7, align 8, !tbaa !173
  %78 = load ptr, ptr %77, align 8, !tbaa !104
  store ptr %78, ptr %6, align 8, !tbaa !104
  br label %63, !llvm.loop !175

79:                                               ; preds = %63
  %80 = load ptr, ptr %6, align 8, !tbaa !104
  %81 = getelementptr inbounds nuw %struct.DVBSubObject, ptr %80, i32 0, i32 4
  %82 = load ptr, ptr %81, align 8, !tbaa !108
  %83 = load ptr, ptr %7, align 8, !tbaa !173
  store ptr %82, ptr %83, align 8, !tbaa !104
  call void @av_freep(ptr noundef %6)
  br label %84

84:                                               ; preds = %79, %49
  br label %85

85:                                               ; preds = %84, %46
  br label %86

86:                                               ; preds = %85, %16
  %87 = load ptr, ptr %8, align 8, !tbaa !110
  %88 = getelementptr inbounds nuw %struct.DVBSubObjectDisplay, ptr %87, i32 0, i32 6
  %89 = load ptr, ptr %88, align 8, !tbaa !119
  %90 = load ptr, ptr %4, align 8, !tbaa !88
  %91 = getelementptr inbounds nuw %struct.DVBSubRegion, ptr %90, i32 0, i32 12
  store ptr %89, ptr %91, align 8, !tbaa !118
  call void @av_freep(ptr noundef %8)
  br label %11, !llvm.loop !176

92:                                               ; preds = %11
  call void @llvm.lifetime.end.p0(i64 8, ptr %10) #11
  call void @llvm.lifetime.end.p0(i64 8, ptr %9) #11
  call void @llvm.lifetime.end.p0(i64 8, ptr %8) #11
  call void @llvm.lifetime.end.p0(i64 8, ptr %7) #11
  call void @llvm.lifetime.end.p0(i64 8, ptr %6) #11
  call void @llvm.lifetime.end.p0(i64 8, ptr %5) #11
  ret void
}