; Function Attrs: nounwind uwtable
define internal fastcc void @delete_region_display_list(ptr noundef captures(none) %0, ptr noundef captures(none) %1) unnamed_addr #1 {
  %3 = alloca ptr, align 8
  %4 = alloca ptr, align 8
  call void @llvm.lifetime.start.p0(i64 8, ptr nonnull %3) #10
  call void @llvm.lifetime.start.p0(i64 8, ptr nonnull %4) #10
  %5 = getelementptr inbounds nuw i8, ptr %1, i64 1072
  %6 = load ptr, ptr %5, align 8, !tbaa !97
  %.not41 = icmp eq ptr %6, null
  br i1 %.not41, label %._crit_edge44, label %.lr.ph43

.lr.ph43:                                         ; preds = %2
  %7 = getelementptr inbounds nuw i8, ptr %0, i64 263232
  br label %8

8:                                                ; preds = %.lr.ph43, %get_object.exit.thread
  %9 = phi ptr [ %6, %.lr.ph43 ], [ %33, %get_object.exit.thread ]
  store ptr %9, ptr %4, align 8, !tbaa !108
  %10 = load i32, ptr %9, align 8, !tbaa !90
  %.06.i = load ptr, ptr %7, align 8, !tbaa !55
  %.not7.i = icmp eq ptr %.06.i, null
  br i1 %.not7.i, label %get_object.exit.thread, label %.lr.ph.i

.lr.ph.i:                                         ; preds = %8, %12
  %.08.i = phi ptr [ %.0.i, %12 ], [ %.06.i, %8 ]
  %11 = load i32, ptr %.08.i, align 8, !tbaa !87
  %.not5.i = icmp eq i32 %11, %10
  br i1 %.not5.i, label %get_object.exit, label %12

12:                                               ; preds = %.lr.ph.i
  %13 = getelementptr inbounds nuw i8, ptr %.08.i, i64 24
  %.0.i = load ptr, ptr %13, align 8, !tbaa !55
  %.not.i = icmp eq ptr %.0.i, null
  br i1 %.not.i, label %get_object.exit.thread, label %.lr.ph.i, !llvm.loop !88

get_object.exit:                                  ; preds = %.lr.ph.i
  %14 = getelementptr inbounds nuw i8, ptr %.08.i, i64 16
  br label %15

15:                                               ; preds = %15, %get_object.exit
  %.0 = phi ptr [ %14, %get_object.exit ], [ %19, %15 ]
  %.020 = load ptr, ptr %.0, align 8, !tbaa !108
  %16 = icmp ne ptr %.020, null
  %17 = icmp ne ptr %.020, %9
  %18 = and i1 %16, %17
  %19 = getelementptr inbounds nuw i8, ptr %.020, i64 32
  br i1 %18, label %15, label %20, !llvm.loop !154

20:                                               ; preds = %15
  br i1 %16, label %21, label %get_object.exit.thread

21:                                               ; preds = %20
  %22 = load ptr, ptr %19, align 8, !tbaa !100
  store ptr %22, ptr %.0, align 8, !tbaa !108
  %23 = load ptr, ptr %14, align 8, !tbaa !99
  %.not26 = icmp eq ptr %23, null
  br i1 %.not26, label %.preheader, label %get_object.exit.thread

.preheader:                                       ; preds = %21
  %.not2737 = icmp eq ptr %.06.i, %.08.i
  br i1 %.not2737, label %._crit_edge, label %.lr.ph

.lr.ph:                                           ; preds = %.preheader, %25
  %storemerge38 = phi ptr [ %storemerge, %25 ], [ %.06.i, %.preheader ]
  %.not28 = icmp eq ptr %storemerge38, null
  br i1 %.not28, label %24, label %25

24:                                               ; preds = %.lr.ph
  store ptr null, ptr %3, align 8, !tbaa !55
  call void (ptr, i32, ptr, ...) @av_log(ptr noundef null, i32 noundef 0, ptr noundef nonnull @.str.17, ptr noundef nonnull @.str.18, ptr noundef nonnull @.str.19, i32 noundef 205) #10
  call void @abort() #12
  unreachable

25:                                               ; preds = %.lr.ph
  %26 = getelementptr inbounds nuw i8, ptr %storemerge38, i64 24
  %storemerge = load ptr, ptr %26, align 8, !tbaa !55
  %.not27 = icmp eq ptr %storemerge, %.08.i
  br i1 %.not27, label %._crit_edge.loopexit, label %.lr.ph, !llvm.loop !155

._crit_edge.loopexit:                             ; preds = %25
  %27 = getelementptr inbounds nuw i8, ptr %storemerge38, i64 24
  br label %._crit_edge

._crit_edge:                                      ; preds = %._crit_edge.loopexit, %.preheader
  %storemerge.lcssa34 = phi ptr [ %.06.i, %.preheader ], [ %storemerge, %._crit_edge.loopexit ]
  %.021.lcssa = phi ptr [ %7, %.preheader ], [ %27, %._crit_edge.loopexit ]
  store ptr %storemerge.lcssa34, ptr %3, align 8, !tbaa !55
  %28 = getelementptr inbounds nuw i8, ptr %storemerge.lcssa34, i64 24
  %29 = load ptr, ptr %28, align 8, !tbaa !56
  store ptr %29, ptr %.021.lcssa, align 8, !tbaa !55
  call void @av_freep(ptr noundef nonnull %3) #10
  %.pre = load ptr, ptr %4, align 8, !tbaa !108
  br label %get_object.exit.thread

get_object.exit.thread:                           ; preds = %12, %8, %20, %._crit_edge, %21
  %30 = phi ptr [ %9, %8 ], [ %9, %20 ], [ %.pre, %._crit_edge ], [ %9, %21 ], [ %9, %12 ]
  %31 = getelementptr inbounds nuw i8, ptr %30, i64 24
  %32 = load ptr, ptr %31, align 8, !tbaa !98
  store ptr %32, ptr %5, align 8, !tbaa !97
  call void @av_freep(ptr noundef nonnull %4) #10
  %33 = load ptr, ptr %5, align 8, !tbaa !97
  %.not = icmp eq ptr %33, null
  br i1 %.not, label %._crit_edge44, label %8, !llvm.loop !156

._crit_edge44:                                    ; preds = %get_object.exit.thread, %2
  call void @llvm.lifetime.end.p0(i64 8, ptr nonnull %4) #10
  call void @llvm.lifetime.end.p0(i64 8, ptr nonnull %3) #10
  ret void
}